; Function Attrs: nounwind uwtable
define noundef nonnull ptr @l_Lean_Grind_CommRing_Poly_checkNoUnitMon___boxed(ptr noundef %0) local_unnamed_addr #1 {
  br label %2

2:                                                ; preds = %24, %1
  %.09.i = phi ptr [ %0, %1 ], [ %26, %24 ]
  %3 = ptrtoint ptr %.09.i to i64
  %4 = and i64 %3, 1
  %.not.i.i = icmp eq i64 %4, 0
  br i1 %.not.i.i, label %8, label %5

5:                                                ; preds = %2
  %6 = lshr i64 %3, 1
  %7 = trunc i64 %6 to i32
  br label %lean_obj_tag.exit.i

8:                                                ; preds = %2
  %9 = getelementptr i8, ptr %.09.i, i64 4
  %.val.i.i = load i32, ptr %9, align 4
  %10 = lshr i32 %.val.i.i, 24
  br label %lean_obj_tag.exit.i

lean_obj_tag.exit.i:                              ; preds = %8, %5
  %.0.i.i = phi i32 [ %7, %5 ], [ %10, %8 ]
  %11 = icmp eq i32 %.0.i.i, 0
  br i1 %11, label %l_Lean_Grind_CommRing_Poly_checkNoUnitMon.exit, label %12

12:                                               ; preds = %lean_obj_tag.exit.i
  %13 = getelementptr inbounds nuw i8, ptr %.09.i, i64 16
  %14 = load ptr, ptr %13, align 8, !tbaa !6
  %15 = ptrtoint ptr %14 to i64
  %16 = and i64 %15, 1
  %.not.i11.i = icmp eq i64 %16, 0
  br i1 %.not.i11.i, label %20, label %17

17:                                               ; preds = %12
  %18 = lshr i64 %15, 1
  %19 = trunc i64 %18 to i32
  br label %lean_obj_tag.exit14.i

20:                                               ; preds = %12
  %21 = getelementptr i8, ptr %14, i64 4
  %.val.i13.i = load i32, ptr %21, align 4
  %22 = lshr i32 %.val.i13.i, 24
  br label %lean_obj_tag.exit14.i

lean_obj_tag.exit14.i:                            ; preds = %20, %17
  %.0.i12.i = phi i32 [ %19, %17 ], [ %22, %20 ]
  %23 = icmp eq i32 %.0.i12.i, 0
  br i1 %23, label %l_Lean_Grind_CommRing_Poly_checkNoUnitMon.exit, label %24

24:                                               ; preds = %lean_obj_tag.exit14.i
  %25 = getelementptr inbounds nuw i8, ptr %.09.i, i64 24
  %26 = load ptr, ptr %25, align 8, !tbaa !6
  br label %2

l_Lean_Grind_CommRing_Poly_checkNoUnitMon.exit:   ; preds = %lean_obj_tag.exit.i, %lean_obj_tag.exit14.i
  %.1.i = phi i64 [ 3, %lean_obj_tag.exit.i ], [ 1, %lean_obj_tag.exit14.i ]
  %27 = ptrtoint ptr %0 to i64
  %28 = and i64 %27, 1
  %.not = icmp eq i64 %28, 0
  br i1 %.not, label %29, label %lean_dec.exit

29:                                               ; preds = %l_Lean_Grind_CommRing_Poly_checkNoUnitMon.exit
  %30 = load i32, ptr %0, align 4, !tbaa !10
  %31 = icmp sgt i32 %30, 1
  br i1 %31, label %32, label %34, !prof !5

32:                                               ; preds = %29
  %33 = add nsw i32 %30, -1
  store i32 %33, ptr %0, align 4, !tbaa !10
  br label %lean_dec.exit

34:                                               ; preds = %29
  %.not.i = icmp eq i32 %30, 0
  br i1 %.not.i, label %lean_dec.exit, label %35

35:                                               ; preds = %34
  tail call void @lean_dec_ref_cold(ptr noundef nonnull %0) #6
  br label %lean_dec.exit

lean_dec.exit:                                    ; preds = %35, %34, %32, %l_Lean_Grind_CommRing_Poly_checkNoUnitMon.exit
  %36 = inttoptr i64 %.1.i to ptr
  ret ptr %36
}